target datalayout = "e-m:e-p270:32:32-p271:32:32-p272:64:64-i64:64-i128:128-f80:128-n8:16:32:64-S128"
target triple = "x86_64-pc-linux-gnu"

%"class.(anonymous namespace)::ufixedpoint16" = type { i16 }
%union.anon.82 = type { i32 }

; Function Attrs: inlinehint mustprogress nounwind uwtable
define linkonce_odr noundef nonnull align 4 dereferenceable(4) ptr @_ZSt3minIjERKT_S2_S2_(ptr noundef nonnull align 4 dereferenceable(4) %0, ptr noundef nonnull align 4 dereferenceable(4) %1) #5 comdat {
  %3 = alloca ptr, align 8
  %4 = alloca ptr, align 8
  %5 = alloca ptr, align 8
  store ptr %0, ptr %4, align 8, !tbaa !22
  store ptr %1, ptr %5, align 8, !tbaa !22
  %6 = load ptr, ptr %5, align 8, !tbaa !22
  %7 = load i32, ptr %6, align 4, !tbaa !3
  %8 = load ptr, ptr %4, align 8, !tbaa !22
  %9 = load i32, ptr %8, align 4, !tbaa !3
  %10 = icmp ult i32 %7, %9
  br i1 %10, label %11, label %13

11:                                               ; preds = %2
  %12 = load ptr, ptr %5, align 8, !tbaa !22
  store ptr %12, ptr %3, align 8
  br label %15

13:                                               ; preds = %2
  %14 = load ptr, ptr %4, align 8, !tbaa !22
  store ptr %14, ptr %3, align 8
  br label %15

15:                                               ; preds = %13, %11
  %16 = load ptr, ptr %3, align 8
  ret ptr %16
}

; Function Attrs: mustprogress nounwind uwtable
define internal void @_ZN12_GLOBAL__N_113ufixedpoint16C2Et(ptr noundef nonnull align 2 dereferenceable(2) %0, i16 noundef zeroext %1) unnamed_addr #4 align 2 {
  %3 = alloca ptr, align 8
  %4 = alloca i16, align 2
  store ptr %0, ptr %3, align 8, !tbaa !67
  store i16 %1, ptr %4, align 2, !tbaa !42
  %5 = load ptr, ptr %3, align 8
  %6 = getelementptr inbounds nuw %"class.(anonymous namespace)::ufixedpoint16", ptr %5, i32 0, i32 0
  %7 = load i16, ptr %4, align 2, !tbaa !42
  store i16 %7, ptr %6, align 2, !tbaa !958
  ret void
}

; Function Attrs: inlinehint mustprogress uwtable
define internal noundef zeroext i16 @_ZN2cvL13saturate_castItEET_j(i32 noundef %0) #6 {
  %2 = alloca i32, align 4
  %3 = alloca i32, align 4
  store i32 %0, ptr %2, align 4, !tbaa !3
  call void @llvm.lifetime.start.p0(i64 4, ptr %3) #19
  store i32 65535, ptr %3, align 4, !tbaa !3
  %4 = call noundef nonnull align 4 dereferenceable(4) ptr @_ZSt3minIjERKT_S2_S2_(ptr noundef nonnull align 4 dereferenceable(4) %2, ptr noundef nonnull align 4 dereferenceable(4) %3)
  %5 = load i32, ptr %4, align 4, !tbaa !3
  %6 = trunc i32 %5 to i16
  call void @llvm.lifetime.end.p0(i64 4, ptr %3) #19
  ret i16 %6
}

; Function Attrs: alwaysinline mustprogress uwtable
define internal void @_ZNK12_GLOBAL__N_113ufixedpoint16plERKS0_(ptr dead_on_unwind noalias writable sret(%"class.(anonymous namespace)::ufixedpoint16") align 2 %0, ptr noundef nonnull align 2 dereferenceable(2) %1, ptr noundef nonnull align 2 dereferenceable(2) %2) #18 align 2 {
  %4 = alloca ptr, align 8
  %5 = alloca ptr, align 8
  %6 = alloca ptr, align 8
  %7 = alloca i16, align 2
  store ptr %0, ptr %4, align 8
  store ptr %1, ptr %5, align 8, !tbaa !67
  store ptr %2, ptr %6, align 8, !tbaa !67
  %8 = load ptr, ptr %5, align 8
  call void @llvm.lifetime.start.p0(i64 2, ptr %7) #19
  %9 = getelementptr inbounds nuw %"class.(anonymous namespace)::ufixedpoint16", ptr %8, i32 0, i32 0
  %10 = load i16, ptr %9, align 2, !tbaa !958
  %11 = zext i16 %10 to i32
  %12 = load ptr, ptr %6, align 8, !tbaa !67
  %13 = getelementptr inbounds nuw %"class.(anonymous namespace)::ufixedpoint16", ptr %12, i32 0, i32 0
  %14 = load i16, ptr %13, align 2, !tbaa !958
  %15 = zext i16 %14 to i32
  %16 = add nsw i32 %11, %15
  %17 = trunc i32 %16 to i16
  store i16 %17, ptr %7, align 2, !tbaa !42
  %18 = getelementptr inbounds nuw %"class.(anonymous namespace)::ufixedpoint16", ptr %8, i32 0, i32 0
  %19 = load i16, ptr %18, align 2, !tbaa !958
  %20 = zext i16 %19 to i32
  %21 = load i16, ptr %7, align 2, !tbaa !42
  %22 = zext i16 %21 to i32
  %23 = icmp sgt i32 %20, %22
  br i1 %23, label %24, label %25

24:                                               ; preds = %3
  br label %27

25:                                               ; preds = %3
  %26 = load i16, ptr %7, align 2, !tbaa !42
  br label %27

27:                                               ; preds = %25, %24
  %28 = phi i16 [ -1, %24 ], [ %26, %25 ]
  call void @_ZN12_GLOBAL__N_113ufixedpoint16C2Et(ptr noundef nonnull align 2 dereferenceable(2) %0, i16 noundef zeroext %28)
  call void @llvm.lifetime.end.p0(i64 2, ptr %7) #19
  ret void
}

; Function Attrs: alwaysinline mustprogress uwtable
define internal void @_ZNK12_GLOBAL__N_113ufixedpoint16mlERKh(ptr dead_on_unwind noalias writable sret(%"class.(anonymous namespace)::ufixedpoint16") align 2 %0, ptr noundef nonnull align 2 dereferenceable(2) %1, ptr noundef nonnull align 1 dereferenceable(1) %2) #18 align 2 {
  %4 = alloca ptr, align 8
  %5 = alloca ptr, align 8
  %6 = alloca ptr, align 8
  store ptr %0, ptr %4, align 8
  store ptr %1, ptr %5, align 8, !tbaa !67
  store ptr %2, ptr %6, align 8, !tbaa !7
  %7 = load ptr, ptr %5, align 8
  %8 = getelementptr inbounds nuw %"class.(anonymous namespace)::ufixedpoint16", ptr %7, i32 0, i32 0
  %9 = load i16, ptr %8, align 2, !tbaa !958
  %10 = zext i16 %9 to i32
  %11 = load ptr, ptr %6, align 8, !tbaa !7
  %12 = load i8, ptr %11, align 1, !tbaa !127
  %13 = zext i8 %12 to i32
  %14 = mul i32 %10, %13
  %15 = call noundef zeroext i16 @_ZN2cvL13saturate_castItEET_j(i32 noundef %14)
  call void @_ZN12_GLOBAL__N_113ufixedpoint16C2Et(ptr noundef nonnull align 2 dereferenceable(2) %0, i16 noundef zeroext %15)
  ret void
}

; Function Attrs: alwaysinline mustprogress nounwind uwtable
define internal noundef nonnull align 2 dereferenceable(2) ptr @_ZN12_GLOBAL__N_113ufixedpoint16aSERKS0_(ptr noundef nonnull align 2 dereferenceable(2) %0, ptr noundef nonnull align 2 dereferenceable(2) %1) #16 align 2 {
  %3 = alloca ptr, align 8
  %4 = alloca ptr, align 8
  store ptr %0, ptr %3, align 8, !tbaa !67
  store ptr %1, ptr %4, align 8, !tbaa !67
  %5 = load ptr, ptr %3, align 8
  %6 = load ptr, ptr %4, align 8, !tbaa !67
  %7 = getelementptr inbounds nuw %"class.(anonymous namespace)::ufixedpoint16", ptr %6, i32 0, i32 0
  %8 = load i16, ptr %7, align 2, !tbaa !958
  %9 = getelementptr inbounds nuw %"class.(anonymous namespace)::ufixedpoint16", ptr %5, i32 0, i32 0
  store i16 %8, ptr %9, align 2, !tbaa !958
  ret ptr %5
}

; Function Attrs: alwaysinline mustprogress nounwind uwtable
define internal noundef nonnull align 2 dereferenceable(2) ptr @_ZN12_GLOBAL__N_113ufixedpoint16aSERKh(ptr noundef nonnull align 2 dereferenceable(2) %0, ptr noundef nonnull align 1 dereferenceable(1) %1) #16 align 2 {
  %3 = alloca ptr, align 8
  %4 = alloca ptr, align 8
  store ptr %0, ptr %3, align 8, !tbaa !67
  store ptr %1, ptr %4, align 8, !tbaa !7
  %5 = load ptr, ptr %3, align 8
  %6 = load ptr, ptr %4, align 8, !tbaa !7
  %7 = load i8, ptr %6, align 1, !tbaa !127
  %8 = zext i8 %7 to i16
  %9 = zext i16 %8 to i32
  %10 = shl i32 %9, 8
  %11 = trunc i32 %10 to i16
  %12 = getelementptr inbounds nuw %"class.(anonymous namespace)::ufixedpoint16", ptr %5, i32 0, i32 0
  store i16 %11, ptr %12, align 2, !tbaa !958
  ret ptr %5
}

; Function Attrs: mustprogress uwtable
define internal void @_ZN12_GLOBAL__N_113hlineResizeCnIhNS_13ufixedpoint16ELi2ELb1ELi2EEEvPT_iPiPT0_S6_iii(ptr noundef %0, i32 noundef %1, ptr noundef %2, ptr noundef %3, ptr noundef %4, i32 noundef %5, i32 noundef %6, i32 noundef %7) #0 {
  %9 = alloca ptr, align 8
  %10 = alloca i32, align 4
  %11 = alloca ptr, align 8
  %12 = alloca ptr, align 8
  %13 = alloca ptr, align 8
  %14 = alloca i32, align 4
  %15 = alloca i32, align 4
  %16 = alloca i32, align 4
  %17 = alloca i32, align 4
  %18 = alloca %union.anon.82, align 4
  %19 = alloca ptr, align 8
  %20 = alloca %"class.(anonymous namespace)::ufixedpoint16", align 2
  %21 = alloca %"class.(anonymous namespace)::ufixedpoint16", align 2
  %22 = alloca %"class.(anonymous namespace)::ufixedpoint16", align 2
  %23 = alloca %"class.(anonymous namespace)::ufixedpoint16", align 2
  %24 = alloca %"class.(anonymous namespace)::ufixedpoint16", align 2
  %25 = alloca %"class.(anonymous namespace)::ufixedpoint16", align 2
  %26 = alloca i32, align 4
  store ptr %0, ptr %9, align 8, !tbaa !7
  store i32 %1, ptr %10, align 4, !tbaa !3
  store ptr %2, ptr %11, align 8, !tbaa !22
  store ptr %3, ptr %12, align 8, !tbaa !67
  store ptr %4, ptr %13, align 8, !tbaa !67
  store i32 %5, ptr %14, align 4, !tbaa !3
  store i32 %6, ptr %15, align 4, !tbaa !3
  store i32 %7, ptr %16, align 4, !tbaa !3
  call void @llvm.lifetime.start.p0(i64 4, ptr %17) #19
  store i32 0, ptr %17, align 4, !tbaa !3
  call void @llvm.lifetime.start.p0(i64 4, ptr %18) #19
  %27 = load ptr, ptr %9, align 8, !tbaa !7
  %28 = getelementptr inbounds i8, ptr %27, i64 0
  %29 = getelementptr inbounds [2 x i16], ptr %18, i64 0, i64 0
  %30 = getelementptr inbounds %"class.(anonymous namespace)::ufixedpoint16", ptr %29, i64 0
  %31 = call noundef nonnull align 2 dereferenceable(2) ptr @_ZN12_GLOBAL__N_113ufixedpoint16aSERKh(ptr noundef nonnull align 2 dereferenceable(2) %30, ptr noundef nonnull align 1 dereferenceable(1) %28)
  %32 = load ptr, ptr %9, align 8, !tbaa !7
  %33 = getelementptr inbounds i8, ptr %32, i64 1
  %34 = getelementptr inbounds [2 x i16], ptr %18, i64 0, i64 0
  %35 = getelementptr inbounds %"class.(anonymous namespace)::ufixedpoint16", ptr %34, i64 1
  %36 = call noundef nonnull align 2 dereferenceable(2) ptr @_ZN12_GLOBAL__N_113ufixedpoint16aSERKh(ptr noundef nonnull align 2 dereferenceable(2) %35, ptr noundef nonnull align 1 dereferenceable(1) %33)
  br label %37

37:                                               ; preds = %52, %8
  %38 = load i32, ptr %17, align 4, !tbaa !3
  %39 = load i32, ptr %14, align 4, !tbaa !3
  %40 = icmp slt i32 %38, %39
  br i1 %40, label %41, label %57

41:                                               ; preds = %37
  %42 = getelementptr inbounds [2 x i16], ptr %18, i64 0, i64 0
  %43 = getelementptr inbounds %"class.(anonymous namespace)::ufixedpoint16", ptr %42, i64 0
  %44 = load ptr, ptr %13, align 8, !tbaa !67
  %45 = getelementptr inbounds nuw %"class.(anonymous namespace)::ufixedpoint16", ptr %44, i32 1
  store ptr %45, ptr %13, align 8, !tbaa !67
  %46 = call noundef nonnull align 2 dereferenceable(2) ptr @_ZN12_GLOBAL__N_113ufixedpoint16aSERKS0_(ptr noundef nonnull align 2 dereferenceable(2) %44, ptr noundef nonnull align 2 dereferenceable(2) %43)
  %47 = getelementptr inbounds [2 x i16], ptr %18, i64 0, i64 0
  %48 = getelementptr inbounds %"class.(anonymous namespace)::ufixedpoint16", ptr %47, i64 1
  %49 = load ptr, ptr %13, align 8, !tbaa !67
  %50 = getelementptr inbounds nuw %"class.(anonymous namespace)::ufixedpoint16", ptr %49, i32 1
  store ptr %50, ptr %13, align 8, !tbaa !67
  %51 = call noundef nonnull align 2 dereferenceable(2) ptr @_ZN12_GLOBAL__N_113ufixedpoint16aSERKS0_(ptr noundef nonnull align 2 dereferenceable(2) %49, ptr noundef nonnull align 2 dereferenceable(2) %48)
  br label %52

52:                                               ; preds = %41
  %53 = load i32, ptr %17, align 4, !tbaa !3
  %54 = add nsw i32 %53, 1
  store i32 %54, ptr %17, align 4, !tbaa !3
  %55 = load ptr, ptr %12, align 8, !tbaa !67
  %56 = getelementptr inbounds %"class.(anonymous namespace)::ufixedpoint16", ptr %55, i64 2
  store ptr %56, ptr %12, align 8, !tbaa !67
  br label %37, !llvm.loop !907

57:                                               ; preds = %37
  br label %58

58:                                               ; preds = %94, %57
  %59 = load i32, ptr %17, align 4, !tbaa !3
  %60 = load i32, ptr %15, align 4, !tbaa !3
  %61 = icmp slt i32 %59, %60
  br i1 %61, label %62, label %99

62:                                               ; preds = %58
  call void @llvm.lifetime.start.p0(i64 8, ptr %19) #19
  %63 = load ptr, ptr %9, align 8, !tbaa !7
  %64 = load ptr, ptr %11, align 8, !tbaa !22
  %65 = load i32, ptr %17, align 4, !tbaa !3
  %66 = sext i32 %65 to i64
  %67 = getelementptr inbounds i32, ptr %64, i64 %66
  %68 = load i32, ptr %67, align 4, !tbaa !3
  %69 = mul nsw i32 2, %68
  %70 = sext i32 %69 to i64
  %71 = getelementptr inbounds i8, ptr %63, i64 %70
  store ptr %71, ptr %19, align 8, !tbaa !7
  call void @llvm.lifetime.start.p0(i64 2, ptr %20) #19
  call void @llvm.lifetime.start.p0(i64 2, ptr %21) #19
  %72 = load ptr, ptr %12, align 8, !tbaa !67
  %73 = getelementptr inbounds %"class.(anonymous namespace)::ufixedpoint16", ptr %72, i64 0
  %74 = load ptr, ptr %19, align 8, !tbaa !7
  %75 = getelementptr inbounds i8, ptr %74, i64 0
  call void @_ZNK12_GLOBAL__N_113ufixedpoint16mlERKh(ptr dead_on_unwind writable sret(%"class.(anonymous namespace)::ufixedpoint16") align 2 %21, ptr noundef nonnull align 2 dereferenceable(2) %73, ptr noundef nonnull align 1 dereferenceable(1) %75)
  call void @llvm.lifetime.start.p0(i64 2, ptr %22) #19
  %76 = load ptr, ptr %12, align 8, !tbaa !67
  %77 = getelementptr inbounds %"class.(anonymous namespace)::ufixedpoint16", ptr %76, i64 1
  %78 = load ptr, ptr %19, align 8, !tbaa !7
  %79 = getelementptr inbounds i8, ptr %78, i64 2
  call void @_ZNK12_GLOBAL__N_113ufixedpoint16mlERKh(ptr dead_on_unwind writable sret(%"class.(anonymous namespace)::ufixedpoint16") align 2 %22, ptr noundef nonnull align 2 dereferenceable(2) %77, ptr noundef nonnull align 1 dereferenceable(1) %79)
  call void @_ZNK12_GLOBAL__N_113ufixedpoint16plERKS0_(ptr dead_on_unwind writable sret(%"class.(anonymous namespace)::ufixedpoint16") align 2 %20, ptr noundef nonnull align 2 dereferenceable(2) %21, ptr noundef nonnull align 2 dereferenceable(2) %22)
  %80 = load ptr, ptr %13, align 8, !tbaa !67
  %81 = getelementptr inbounds nuw %"class.(anonymous namespace)::ufixedpoint16", ptr %80, i32 1
  store ptr %81, ptr %13, align 8, !tbaa !67
  %82 = call noundef nonnull align 2 dereferenceable(2) ptr @_ZN12_GLOBAL__N_113ufixedpoint16aSERKS0_(ptr noundef nonnull align 2 dereferenceable(2) %80, ptr noundef nonnull align 2 dereferenceable(2) %20)
  call void @llvm.lifetime.end.p0(i64 2, ptr %22) #19
  call void @llvm.lifetime.end.p0(i64 2, ptr %21) #19
  call void @llvm.lifetime.end.p0(i64 2, ptr %20) #19
  call void @llvm.lifetime.start.p0(i64 2, ptr %23) #19
  call void @llvm.lifetime.start.p0(i64 2, ptr %24) #19
  %83 = load ptr, ptr %12, align 8, !tbaa !67
  %84 = getelementptr inbounds %"class.(anonymous namespace)::ufixedpoint16", ptr %83, i64 0
  %85 = load ptr, ptr %19, align 8, !tbaa !7
  %86 = getelementptr inbounds i8, ptr %85, i64 1
  call void @_ZNK12_GLOBAL__N_113ufixedpoint16mlERKh(ptr dead_on_unwind writable sret(%"class.(anonymous namespace)::ufixedpoint16") align 2 %24, ptr noundef nonnull align 2 dereferenceable(2) %84, ptr noundef nonnull align 1 dereferenceable(1) %86)
  call void @llvm.lifetime.start.p0(i64 2, ptr %25) #19
  %87 = load ptr, ptr %12, align 8, !tbaa !67
  %88 = getelementptr inbounds %"class.(anonymous namespace)::ufixedpoint16", ptr %87, i64 1
  %89 = load ptr, ptr %19, align 8, !tbaa !7
  %90 = getelementptr inbounds i8, ptr %89, i64 3
  call void @_ZNK12_GLOBAL__N_113ufixedpoint16mlERKh(ptr dead_on_unwind writable sret(%"class.(anonymous namespace)::ufixedpoint16") align 2 %25, ptr noundef nonnull align 2 dereferenceable(2) %88, ptr noundef nonnull align 1 dereferenceable(1) %90)
  call void @_ZNK12_GLOBAL__N_113ufixedpoint16plERKS0_(ptr dead_on_unwind writable sret(%"class.(anonymous namespace)::ufixedpoint16") align 2 %23, ptr noundef nonnull align 2 dereferenceable(2) %24, ptr noundef nonnull align 2 dereferenceable(2) %25)
  %91 = load ptr, ptr %13, align 8, !tbaa !67
  %92 = getelementptr inbounds nuw %"class.(anonymous namespace)::ufixedpoint16", ptr %91, i32 1
  store ptr %92, ptr %13, align 8, !tbaa !67
  %93 = call noundef nonnull align 2 dereferenceable(2) ptr @_ZN12_GLOBAL__N_113ufixedpoint16aSERKS0_(ptr noundef nonnull align 2 dereferenceable(2) %91, ptr noundef nonnull align 2 dereferenceable(2) %23)
  call void @llvm.lifetime.end.p0(i64 2, ptr %25) #19
  call void @llvm.lifetime.end.p0(i64 2, ptr %24) #19
  call void @llvm.lifetime.end.p0(i64 2, ptr %23) #19
  call void @llvm.lifetime.end.p0(i64 8, ptr %19) #19
  br label %94

94:                                               ; preds = %62
  %95 = load i32, ptr %17, align 4, !tbaa !3
  %96 = add nsw i32 %95, 1
  store i32 %96, ptr %17, align 4, !tbaa !3
  %97 = load ptr, ptr %12, align 8, !tbaa !67
  %98 = getelementptr inbounds %"class.(anonymous namespace)::ufixedpoint16", ptr %97, i64 2
  store ptr %98, ptr %12, align 8, !tbaa !67
  br label %58, !llvm.loop !908

99:                                               ; preds = %58
  %100 = load i32, ptr %17, align 4, !tbaa !3
  %101 = load i32, ptr %16, align 4, !tbaa !3
  %102 = icmp sge i32 %100, %101
  br i1 %102, label %103, label %104

103:                                              ; preds = %99
  store i32 1, ptr %26, align 4
  br label %152

104:                                              ; preds = %99
  %105 = load ptr, ptr %9, align 8, !tbaa !7
  %106 = load ptr, ptr %11, align 8, !tbaa !22
  %107 = load i32, ptr %16, align 4, !tbaa !3
  %108 = sub nsw i32 %107, 1
  %109 = sext i32 %108 to i64
  %110 = getelementptr inbounds i32, ptr %106, i64 %109
  %111 = load i32, ptr %110, align 4, !tbaa !3
  %112 = mul nsw i32 2, %111
  %113 = sext i32 %112 to i64
  %114 = getelementptr inbounds i8, ptr %105, i64 %113
  %115 = getelementptr inbounds i8, ptr %114, i64 0
  %116 = getelementptr inbounds [2 x i16], ptr %18, i64 0, i64 0
  %117 = getelementptr inbounds %"class.(anonymous namespace)::ufixedpoint16", ptr %116, i64 0
  %118 = call noundef nonnull align 2 dereferenceable(2) ptr @_ZN12_GLOBAL__N_113ufixedpoint16aSERKh(ptr noundef nonnull align 2 dereferenceable(2) %117, ptr noundef nonnull align 1 dereferenceable(1) %115)
  %119 = load ptr, ptr %9, align 8, !tbaa !7
  %120 = load ptr, ptr %11, align 8, !tbaa !22
  %121 = load i32, ptr %16, align 4, !tbaa !3
  %122 = sub nsw i32 %121, 1
  %123 = sext i32 %122 to i64
  %124 = getelementptr inbounds i32, ptr %120, i64 %123
  %125 = load i32, ptr %124, align 4, !tbaa !3
  %126 = mul nsw i32 2, %125
  %127 = sext i32 %126 to i64
  %128 = getelementptr inbounds i8, ptr %119, i64 %127
  %129 = getelementptr inbounds i8, ptr %128, i64 1
  %130 = getelementptr inbounds [2 x i16], ptr %18, i64 0, i64 0
  %131 = getelementptr inbounds %"class.(anonymous namespace)::ufixedpoint16", ptr %130, i64 1
  %132 = call noundef nonnull align 2 dereferenceable(2) ptr @_ZN12_GLOBAL__N_113ufixedpoint16aSERKh(ptr noundef nonnull align 2 dereferenceable(2) %131, ptr noundef nonnull align 1 dereferenceable(1) %129)
  br label %133

133:                                              ; preds = %148, %104
  %134 = load i32, ptr %17, align 4, !tbaa !3
  %135 = load i32, ptr %16, align 4, !tbaa !3
  %136 = icmp slt i32 %134, %135
  br i1 %136, label %137, label %151

137:                                              ; preds = %133
  %138 = getelementptr inbounds [2 x i16], ptr %18, i64 0, i64 0
  %139 = getelementptr inbounds %"class.(anonymous namespace)::ufixedpoint16", ptr %138, i64 0
  %140 = load ptr, ptr %13, align 8, !tbaa !67
  %141 = getelementptr inbounds nuw %"class.(anonymous namespace)::ufixedpoint16", ptr %140, i32 1
  store ptr %141, ptr %13, align 8, !tbaa !67
  %142 = call noundef nonnull align 2 dereferenceable(2) ptr @_ZN12_GLOBAL__N_113ufixedpoint16aSERKS0_(ptr noundef nonnull align 2 dereferenceable(2) %140, ptr noundef nonnull align 2 dereferenceable(2) %139)
  %143 = getelementptr inbounds [2 x i16], ptr %18, i64 0, i64 0
  %144 = getelementptr inbounds %"class.(anonymous namespace)::ufixedpoint16", ptr %143, i64 1
  %145 = load ptr, ptr %13, align 8, !tbaa !67
  %146 = getelementptr inbounds nuw %"class.(anonymous namespace)::ufixedpoint16", ptr %145, i32 1
  store ptr %146, ptr %13, align 8, !tbaa !67
  %147 = call noundef nonnull align 2 dereferenceable(2) ptr @_ZN12_GLOBAL__N_113ufixedpoint16aSERKS0_(ptr noundef nonnull align 2 dereferenceable(2) %145, ptr noundef nonnull align 2 dereferenceable(2) %144)
  br label %148

148:                                              ; preds = %137
  %149 = load i32, ptr %17, align 4, !tbaa !3
  %150 = add nsw i32 %149, 1
  store i32 %150, ptr %17, align 4, !tbaa !3
  br label %133, !llvm.loop !909

151:                                              ; preds = %133
  store i32 0, ptr %26, align 4
  br label %152

152:                                              ; preds = %151, %103
  call void @llvm.lifetime.end.p0(i64 4, ptr %18) #19
  call void @llvm.lifetime.end.p0(i64 4, ptr %17) #19
  %153 = load i32, ptr %26, align 4
  switch i32 %153, label %155 [
    i32 0, label %154
    i32 1, label %154
  ]

154:                                              ; preds = %152, %152
  ret void

155:                                              ; preds = %152
  unreachable
}