; Function Attrs: mustprogress nofree norecurse nosync nounwind memory(argmem: readwrite) uwtable
define internal void @_ZN12_GLOBAL__N_113hlineResizeCnIhNS_13ufixedpoint16ELi2ELb1ELi2EEEvPT_iPiPT0_S6_iii(ptr noundef readonly captures(none) %0, i32 %1, ptr noundef readonly captures(none) %2, ptr noundef readonly captures(none) %3, ptr noundef writeonly captures(none) %4, i32 noundef %5, i32 noundef %6, i32 noundef %7) #17 {
  %9 = load i8, ptr %0, align 1, !tbaa !348
  %10 = zext i8 %9 to i16
  %11 = shl nuw i16 %10, 8
  %12 = getelementptr inbounds nuw i8, ptr %0, i64 1
  %13 = load i8, ptr %12, align 1, !tbaa !348
  %14 = zext i8 %13 to i16
  %15 = shl nuw i16 %14, 8
  %16 = icmp sgt i32 %5, 0
  br i1 %16, label %.lr.ph, label %.preheader

.preheader:                                       ; preds = %.lr.ph, %8
  %.039.lcssa = phi ptr [ %4, %8 ], [ %20, %.lr.ph ]
  %.037.lcssa = phi i32 [ 0, %8 ], [ %5, %.lr.ph ]
  %.0.lcssa = phi ptr [ %3, %8 ], [ %22, %.lr.ph ]
  %17 = icmp slt i32 %.037.lcssa, %6
  br i1 %17, label %.lr.ph62.preheader, label %._crit_edge

.lr.ph62.preheader:                               ; preds = %.preheader
  %18 = zext nneg i32 %.037.lcssa to i64
  %wide.trip.count = zext nneg i32 %6 to i64
  br label %.lr.ph62

.lr.ph:                                           ; preds = %8, %.lr.ph
  %.056 = phi ptr [ %22, %.lr.ph ], [ %3, %8 ]
  %.03755 = phi i32 [ %21, %.lr.ph ], [ 0, %8 ]
  %.03954 = phi ptr [ %20, %.lr.ph ], [ %4, %8 ]
  %19 = getelementptr inbounds nuw i8, ptr %.03954, i64 2
  store i16 %11, ptr %.03954, align 2, !tbaa !847
  %20 = getelementptr inbounds nuw i8, ptr %.03954, i64 4
  store i16 %15, ptr %19, align 2, !tbaa !847
  %21 = add nuw nsw i32 %.03755, 1
  %22 = getelementptr inbounds nuw i8, ptr %.056, i64 4
  %exitcond.not = icmp eq i32 %21, %5
  br i1 %exitcond.not, label %.preheader, label %.lr.ph, !llvm.loop !870

.lr.ph62:                                         ; preds = %.lr.ph62.preheader, %.lr.ph62
  %indvars.iv = phi i64 [ %18, %.lr.ph62.preheader ], [ %indvars.iv.next, %.lr.ph62 ]
  %.161 = phi ptr [ %.0.lcssa, %.lr.ph62.preheader ], [ %60, %.lr.ph62 ]
  %.14059 = phi ptr [ %.039.lcssa, %.lr.ph62.preheader ], [ %59, %.lr.ph62 ]
  %23 = getelementptr inbounds nuw i32, ptr %2, i64 %indvars.iv
  %24 = load i32, ptr %23, align 4, !tbaa !16
  %25 = shl nsw i32 %24, 1
  %26 = sext i32 %25 to i64
  %27 = getelementptr inbounds i8, ptr %0, i64 %26
  %28 = load i16, ptr %.161, align 2, !tbaa !847, !noalias !871
  %29 = zext i16 %28 to i32
  %30 = load i8, ptr %27, align 1, !tbaa !348, !noalias !871
  %31 = zext i8 %30 to i32
  %32 = mul nuw nsw i32 %31, %29
  %.sroa.speculated.i = tail call i32 @llvm.umin.i32(i32 range(i32 0, 16711426) %32, i32 65535)
  %33 = trunc nuw i32 %.sroa.speculated.i to i16
  %34 = getelementptr inbounds nuw i8, ptr %.161, i64 2
  %35 = getelementptr inbounds nuw i8, ptr %27, i64 2
  %36 = load i16, ptr %34, align 2, !tbaa !847, !noalias !874
  %37 = zext i16 %36 to i32
  %38 = load i8, ptr %35, align 1, !tbaa !348, !noalias !874
  %39 = zext i8 %38 to i32
  %40 = mul nuw nsw i32 %39, %37
  %.sroa.speculated.i43 = tail call i32 @llvm.umin.i32(i32 range(i32 0, 16711426) %40, i32 65535)
  %41 = trunc nuw i32 %.sroa.speculated.i43 to i16
  %42 = tail call i16 @llvm.uadd.sat.i16(i16 %33, i16 %41)
  %43 = getelementptr inbounds nuw i8, ptr %.14059, i64 2
  store i16 %42, ptr %.14059, align 2, !tbaa !847
  %44 = getelementptr inbounds nuw i8, ptr %27, i64 1
  %45 = load i16, ptr %.161, align 2, !tbaa !847, !noalias !877
  %46 = zext i16 %45 to i32
  %47 = load i8, ptr %44, align 1, !tbaa !348, !noalias !877
  %48 = zext i8 %47 to i32
  %49 = mul nuw nsw i32 %48, %46
  %.sroa.speculated.i44 = tail call i32 @llvm.umin.i32(i32 range(i32 0, 16711426) %49, i32 65535)
  %50 = trunc nuw i32 %.sroa.speculated.i44 to i16
  %51 = getelementptr inbounds nuw i8, ptr %27, i64 3
  %52 = load i16, ptr %34, align 2, !tbaa !847, !noalias !880
  %53 = zext i16 %52 to i32
  %54 = load i8, ptr %51, align 1, !tbaa !348, !noalias !880
  %55 = zext i8 %54 to i32
  %56 = mul nuw nsw i32 %55, %53
  %.sroa.speculated.i45 = tail call i32 @llvm.umin.i32(i32 range(i32 0, 16711426) %56, i32 65535)
  %57 = trunc nuw i32 %.sroa.speculated.i45 to i16
  %58 = tail call i16 @llvm.uadd.sat.i16(i16 %50, i16 %57)
  %59 = getelementptr inbounds nuw i8, ptr %.14059, i64 4
  store i16 %58, ptr %43, align 2, !tbaa !847
  %indvars.iv.next = add nuw nsw i64 %indvars.iv, 1
  %60 = getelementptr inbounds nuw i8, ptr %.161, i64 4
  %exitcond72.not = icmp eq i64 %indvars.iv.next, %wide.trip.count
  br i1 %exitcond72.not, label %._crit_edge, label %.lr.ph62, !llvm.loop !883

._crit_edge:                                      ; preds = %.lr.ph62, %.preheader
  %.140.lcssa = phi ptr [ %.039.lcssa, %.preheader ], [ %59, %.lr.ph62 ]
  %.138.lcssa = phi i32 [ %.037.lcssa, %.preheader ], [ %6, %.lr.ph62 ]
  %.not = icmp slt i32 %.138.lcssa, %7
  br i1 %.not, label %61, label %.loopexit

61:                                               ; preds = %._crit_edge
  %62 = zext nneg i32 %7 to i64
  %63 = getelementptr i32, ptr %2, i64 %62
  %64 = getelementptr i8, ptr %63, i64 -4
  %65 = load i32, ptr %64, align 4, !tbaa !16
  %66 = shl nsw i32 %65, 1
  %67 = sext i32 %66 to i64
  %68 = getelementptr inbounds i8, ptr %0, i64 %67
  %69 = load i8, ptr %68, align 1, !tbaa !348
  %70 = zext i8 %69 to i16
  %71 = shl nuw i16 %70, 8
  %72 = getelementptr inbounds nuw i8, ptr %68, i64 1
  %73 = load i8, ptr %72, align 1, !tbaa !348
  %74 = zext i8 %73 to i16
  %75 = shl nuw i16 %74, 8
  br label %76

76:                                               ; preds = %61, %76
  %.266 = phi i32 [ %.138.lcssa, %61 ], [ %79, %76 ]
  %.24165 = phi ptr [ %.140.lcssa, %61 ], [ %78, %76 ]
  %77 = getelementptr inbounds nuw i8, ptr %.24165, i64 2
  store i16 %71, ptr %.24165, align 2, !tbaa !847
  %78 = getelementptr inbounds nuw i8, ptr %.24165, i64 4
  store i16 %75, ptr %77, align 2, !tbaa !847
  %79 = add nuw nsw i32 %.266, 1
  %exitcond73.not = icmp eq i32 %79, %7
  br i1 %exitcond73.not, label %.loopexit, label %76, !llvm.loop !884

.loopexit:                                        ; preds = %76, %._crit_edge
  ret void
}